target datalayout = "e-m:e-p270:32:32-p271:32:32-p272:64:64-i64:64-i128:128-f80:128-n8:16:32:64-S128"
target triple = "x86_64-pc-linux-gnu"

@.str.27 = private unnamed_addr constant [4 x i8] c"nan\00", align 1
@.str.28 = private unnamed_addr constant [4 x i8] c"NAN\00", align 1
@.str.29 = private unnamed_addr constant [4 x i8] c"inf\00", align 1
@.str.30 = private unnamed_addr constant [4 x i8] c"INF\00", align 1

; Function Attrs: nounwind uwtable
define hidden double @dt_atof(ptr noundef %0) #0 {
  %2 = alloca double, align 8
  %3 = alloca ptr, align 8
  %4 = alloca double, align 8
  %5 = alloca double, align 8
  %6 = alloca double, align 8
  %7 = alloca i32, align 4
  %8 = alloca ptr, align 8
  %9 = alloca ptr, align 8
  %10 = alloca double, align 8
  %11 = alloca ptr, align 8
  %12 = alloca ptr, align 8
  %13 = alloca double, align 8
  %14 = alloca double, align 8
  %15 = alloca double, align 8
  %16 = alloca double, align 8
  store ptr %0, ptr %3, align 8, !tbaa !41
  %17 = load ptr, ptr %3, align 8, !tbaa !41
  %18 = call i32 @strncmp(ptr noundef %17, ptr noundef @.str.27, i64 noundef 3) #15
  %19 = icmp eq i32 %18, 0
  br i1 %19, label %24, label %20

20:                                               ; preds = %1
  %21 = load ptr, ptr %3, align 8, !tbaa !41
  %22 = call i32 @strncmp(ptr noundef %21, ptr noundef @.str.28, i64 noundef 3) #15
  %23 = icmp eq i32 %22, 0
  br i1 %23, label %24, label %25

24:                                               ; preds = %20, %1
  store double 0x7FF8000000000000, ptr %2, align 8
  br label %214

25:                                               ; preds = %20
  call void @llvm.lifetime.start.p0(i64 8, ptr %4) #13
  store double 0.000000e+00, ptr %4, align 8, !tbaa !96
  call void @llvm.lifetime.start.p0(i64 8, ptr %5) #13
  store double 0.000000e+00, ptr %5, align 8, !tbaa !96
  call void @llvm.lifetime.start.p0(i64 8, ptr %6) #13
  store double 1.000000e+00, ptr %6, align 8, !tbaa !96
  %26 = load ptr, ptr %3, align 8, !tbaa !41
  %27 = load i8, ptr %26, align 1, !tbaa !47
  %28 = sext i8 %27 to i32
  %29 = icmp eq i32 %28, 43
  br i1 %29, label %30, label %33

30:                                               ; preds = %25
  %31 = load ptr, ptr %3, align 8, !tbaa !41
  %32 = getelementptr inbounds nuw i8, ptr %31, i32 1
  store ptr %32, ptr %3, align 8, !tbaa !41
  store double 1.000000e+00, ptr %6, align 8, !tbaa !96
  br label %42

33:                                               ; preds = %25
  %34 = load ptr, ptr %3, align 8, !tbaa !41
  %35 = load i8, ptr %34, align 1, !tbaa !47
  %36 = sext i8 %35 to i32
  %37 = icmp eq i32 %36, 45
  br i1 %37, label %38, label %41

38:                                               ; preds = %33
  %39 = load ptr, ptr %3, align 8, !tbaa !41
  %40 = getelementptr inbounds nuw i8, ptr %39, i32 1
  store ptr %40, ptr %3, align 8, !tbaa !41
  store double -1.000000e+00, ptr %6, align 8, !tbaa !96
  br label %41

41:                                               ; preds = %38, %33
  br label %42

42:                                               ; preds = %41, %30
  %43 = load ptr, ptr %3, align 8, !tbaa !41
  %44 = call i32 @strncmp(ptr noundef %43, ptr noundef @.str.29, i64 noundef 3) #15
  %45 = icmp eq i32 %44, 0
  br i1 %45, label %50, label %46

46:                                               ; preds = %42
  %47 = load ptr, ptr %3, align 8, !tbaa !41
  %48 = call i32 @strncmp(ptr noundef %47, ptr noundef @.str.30, i64 noundef 3) #15
  %49 = icmp eq i32 %48, 0
  br i1 %49, label %50, label %53

50:                                               ; preds = %46, %42
  %51 = load double, ptr %6, align 8, !tbaa !96
  %52 = fmul reassoc nsz arcp contract afn double %51, 0x7FF0000000000000
  store double %52, ptr %2, align 8
  store i32 1, ptr %7, align 4
  br label %213

53:                                               ; preds = %46
  call void @llvm.lifetime.start.p0(i64 8, ptr %8) #13
  %54 = load ptr, ptr %3, align 8, !tbaa !41
  store ptr %54, ptr %8, align 8, !tbaa !41
  br label %55

55:                                               ; preds = %67, %53
  %56 = load ptr, ptr %3, align 8, !tbaa !41
  %57 = load i8, ptr %56, align 1, !tbaa !47
  %58 = sext i8 %57 to i32
  %59 = icmp sge i32 %58, 48
  br i1 %59, label %60, label %65

60:                                               ; preds = %55
  %61 = load ptr, ptr %3, align 8, !tbaa !41
  %62 = load i8, ptr %61, align 1, !tbaa !47
  %63 = sext i8 %62 to i32
  %64 = icmp sle i32 %63, 57
  br label %65

65:                                               ; preds = %60, %55
  %66 = phi i1 [ false, %55 ], [ %64, %60 ]
  br i1 %66, label %67, label %70

67:                                               ; preds = %65
  %68 = load ptr, ptr %3, align 8, !tbaa !41
  %69 = getelementptr inbounds nuw i8, ptr %68, i32 1
  store ptr %69, ptr %3, align 8, !tbaa !41
  br label %55

70:                                               ; preds = %65
  call void @llvm.lifetime.start.p0(i64 8, ptr %9) #13
  %71 = load ptr, ptr %3, align 8, !tbaa !41
  store ptr %71, ptr %9, align 8, !tbaa !41
  call void @llvm.lifetime.start.p0(i64 8, ptr %10) #13
  store double 1.000000e+00, ptr %10, align 8, !tbaa !96
  br label %72

72:                                               ; preds = %76, %70
  %73 = load ptr, ptr %9, align 8, !tbaa !41
  %74 = load ptr, ptr %8, align 8, !tbaa !41
  %75 = icmp ne ptr %73, %74
  br i1 %75, label %76, label %90

76:                                               ; preds = %72
  %77 = load ptr, ptr %9, align 8, !tbaa !41
  %78 = getelementptr inbounds i8, ptr %77, i32 -1
  store ptr %78, ptr %9, align 8, !tbaa !41
  %79 = load ptr, ptr %9, align 8, !tbaa !41
  %80 = load i8, ptr %79, align 1, !tbaa !47
  %81 = sext i8 %80 to i32
  %82 = sub nsw i32 %81, 48
  %83 = sitofp i32 %82 to double
  %84 = load double, ptr %10, align 8, !tbaa !96
  %85 = fmul reassoc nsz arcp contract afn double %83, %84
  %86 = load double, ptr %4, align 8, !tbaa !96
  %87 = fadd reassoc nsz arcp contract afn double %86, %85
  store double %87, ptr %4, align 8, !tbaa !96
  %88 = load double, ptr %10, align 8, !tbaa !96
  %89 = fmul reassoc nsz arcp contract afn double %88, 1.000000e+01
  store double %89, ptr %10, align 8, !tbaa !96
  br label %72

90:                                               ; preds = %72
  %91 = load ptr, ptr %3, align 8, !tbaa !41
  %92 = load i8, ptr %91, align 1, !tbaa !47
  %93 = sext i8 %92 to i32
  %94 = icmp eq i32 %93, 46
  br i1 %94, label %95, label %138

95:                                               ; preds = %90
  %96 = load ptr, ptr %3, align 8, !tbaa !41
  %97 = getelementptr inbounds nuw i8, ptr %96, i32 1
  store ptr %97, ptr %3, align 8, !tbaa !41
  call void @llvm.lifetime.start.p0(i64 8, ptr %11) #13
  %98 = load ptr, ptr %3, align 8, !tbaa !41
  store ptr %98, ptr %11, align 8, !tbaa !41
  br label %99

99:                                               ; preds = %111, %95
  %100 = load ptr, ptr %3, align 8, !tbaa !41
  %101 = load i8, ptr %100, align 1, !tbaa !47
  %102 = sext i8 %101 to i32
  %103 = icmp sge i32 %102, 48
  br i1 %103, label %104, label %109

104:                                              ; preds = %99
  %105 = load ptr, ptr %3, align 8, !tbaa !41
  %106 = load i8, ptr %105, align 1, !tbaa !47
  %107 = sext i8 %106 to i32
  %108 = icmp sle i32 %107, 57
  br label %109

109:                                              ; preds = %104, %99
  %110 = phi i1 [ false, %99 ], [ %108, %104 ]
  br i1 %110, label %111, label %114

111:                                              ; preds = %109
  %112 = load ptr, ptr %3, align 8, !tbaa !41
  %113 = getelementptr inbounds nuw i8, ptr %112, i32 1
  store ptr %113, ptr %3, align 8, !tbaa !41
  br label %99

114:                                              ; preds = %109
  call void @llvm.lifetime.start.p0(i64 8, ptr %12) #13
  %115 = load ptr, ptr %3, align 8, !tbaa !41
  store ptr %115, ptr %12, align 8, !tbaa !41
  call void @llvm.lifetime.start.p0(i64 8, ptr %13) #13
  store double 1.000000e+00, ptr %13, align 8, !tbaa !96
  br label %116

116:                                              ; preds = %120, %114
  %117 = load ptr, ptr %12, align 8, !tbaa !41
  %118 = load ptr, ptr %11, align 8, !tbaa !41
  %119 = icmp ne ptr %117, %118
  br i1 %119, label %120, label %134

120:                                              ; preds = %116
  %121 = load ptr, ptr %12, align 8, !tbaa !41
  %122 = getelementptr inbounds i8, ptr %121, i32 -1
  store ptr %122, ptr %12, align 8, !tbaa !41
  %123 = load ptr, ptr %12, align 8, !tbaa !41
  %124 = load i8, ptr %123, align 1, !tbaa !47
  %125 = sext i8 %124 to i32
  %126 = sub nsw i32 %125, 48
  %127 = sitofp i32 %126 to double
  %128 = load double, ptr %13, align 8, !tbaa !96
  %129 = fmul reassoc nsz arcp contract afn double %127, %128
  %130 = load double, ptr %5, align 8, !tbaa !96
  %131 = fadd reassoc nsz arcp contract afn double %130, %129
  store double %131, ptr %5, align 8, !tbaa !96
  %132 = load double, ptr %13, align 8, !tbaa !96
  %133 = fmul reassoc nsz arcp contract afn double %132, 1.000000e+01
  store double %133, ptr %13, align 8, !tbaa !96
  br label %116

134:                                              ; preds = %116
  %135 = load double, ptr %13, align 8, !tbaa !96
  %136 = load double, ptr %5, align 8, !tbaa !96
  %137 = fdiv reassoc nsz arcp contract afn double %136, %135
  store double %137, ptr %5, align 8, !tbaa !96
  call void @llvm.lifetime.end.p0(i64 8, ptr %13) #13
  call void @llvm.lifetime.end.p0(i64 8, ptr %12) #13
  call void @llvm.lifetime.end.p0(i64 8, ptr %11) #13
  br label %138

138:                                              ; preds = %134, %90
  call void @llvm.lifetime.start.p0(i64 8, ptr %14) #13
  %139 = load double, ptr %6, align 8, !tbaa !96
  %140 = load double, ptr %4, align 8, !tbaa !96
  %141 = load double, ptr %5, align 8, !tbaa !96
  %142 = fadd reassoc nsz arcp contract afn double %140, %141
  %143 = fmul reassoc nsz arcp contract afn double %139, %142
  store double %143, ptr %14, align 8, !tbaa !96
  %144 = load ptr, ptr %3, align 8, !tbaa !41
  %145 = load i8, ptr %144, align 1, !tbaa !47
  %146 = sext i8 %145 to i32
  %147 = icmp eq i32 %146, 101
  br i1 %147, label %153, label %148

148:                                              ; preds = %138
  %149 = load ptr, ptr %3, align 8, !tbaa !41
  %150 = load i8, ptr %149, align 1, !tbaa !47
  %151 = sext i8 %150 to i32
  %152 = icmp eq i32 %151, 69
  br i1 %152, label %153, label %211

153:                                              ; preds = %148, %138
  %154 = load ptr, ptr %3, align 8, !tbaa !41
  %155 = getelementptr inbounds nuw i8, ptr %154, i32 1
  store ptr %155, ptr %3, align 8, !tbaa !41
  call void @llvm.lifetime.start.p0(i64 8, ptr %15) #13
  store double 1.000000e+00, ptr %15, align 8, !tbaa !96
  %156 = load ptr, ptr %3, align 8, !tbaa !41
  %157 = load i8, ptr %156, align 1, !tbaa !47
  %158 = sext i8 %157 to i32
  %159 = icmp eq i32 %158, 43
  br i1 %159, label %160, label %163

160:                                              ; preds = %153
  %161 = load ptr, ptr %3, align 8, !tbaa !41
  %162 = getelementptr inbounds nuw i8, ptr %161, i32 1
  store ptr %162, ptr %3, align 8, !tbaa !41
  store double 1.000000e+00, ptr %15, align 8, !tbaa !96
  br label %172

163:                                              ; preds = %153
  %164 = load ptr, ptr %3, align 8, !tbaa !41
  %165 = load i8, ptr %164, align 1, !tbaa !47
  %166 = sext i8 %165 to i32
  %167 = icmp eq i32 %166, 45
  br i1 %167, label %168, label %171

168:                                              ; preds = %163
  %169 = load ptr, ptr %3, align 8, !tbaa !41
  %170 = getelementptr inbounds nuw i8, ptr %169, i32 1
  store ptr %170, ptr %3, align 8, !tbaa !41
  store double -1.000000e+00, ptr %15, align 8, !tbaa !96
  br label %171

171:                                              ; preds = %168, %163
  br label %172

172:                                              ; preds = %171, %160
  call void @llvm.lifetime.start.p0(i64 8, ptr %16) #13
  store double 0.000000e+00, ptr %16, align 8, !tbaa !96
  br label %173

173:                                              ; preds = %185, %172
  %174 = load ptr, ptr %3, align 8, !tbaa !41
  %175 = load i8, ptr %174, align 1, !tbaa !47
  %176 = sext i8 %175 to i32
  %177 = icmp sge i32 %176, 48
  br i1 %177, label %178, label %183

178:                                              ; preds = %173
  %179 = load ptr, ptr %3, align 8, !tbaa !41
  %180 = load i8, ptr %179, align 1, !tbaa !47
  %181 = sext i8 %180 to i32
  %182 = icmp sle i32 %181, 57
  br label %183

183:                                              ; preds = %178, %173
  %184 = phi i1 [ false, %173 ], [ %182, %178 ]
  br i1 %184, label %185, label %197

185:                                              ; preds = %183
  %186 = load double, ptr %16, align 8, !tbaa !96
  %187 = fmul reassoc nsz arcp contract afn double %186, 1.000000e+01
  store double %187, ptr %16, align 8, !tbaa !96
  %188 = load ptr, ptr %3, align 8, !tbaa !41
  %189 = load i8, ptr %188, align 1, !tbaa !47
  %190 = sext i8 %189 to i32
  %191 = sub nsw i32 %190, 48
  %192 = sitofp i32 %191 to double
  %193 = load double, ptr %16, align 8, !tbaa !96
  %194 = fadd reassoc nsz arcp contract afn double %193, %192
  store double %194, ptr %16, align 8, !tbaa !96
  %195 = load ptr, ptr %3, align 8, !tbaa !41
  %196 = getelementptr inbounds nuw i8, ptr %195, i32 1
  store ptr %196, ptr %3, align 8, !tbaa !41
  br label %173

197:                                              ; preds = %183
  %198 = load double, ptr %15, align 8, !tbaa !96
  %199 = fcmp reassoc nsz arcp contract afn ogt double %198, 0.000000e+00
  br i1 %199, label %200, label %205

200:                                              ; preds = %197
  %201 = load double, ptr %16, align 8, !tbaa !96
  %202 = call reassoc nsz arcp contract afn double @llvm.pow.f64(double 1.000000e+01, double %201)
  %203 = load double, ptr %14, align 8, !tbaa !96
  %204 = fmul reassoc nsz arcp contract afn double %203, %202
  store double %204, ptr %14, align 8, !tbaa !96
  br label %210

205:                                              ; preds = %197
  %206 = load double, ptr %16, align 8, !tbaa !96
  %207 = call reassoc nsz arcp contract afn double @llvm.pow.f64(double 1.000000e+01, double %206)
  %208 = load double, ptr %14, align 8, !tbaa !96
  %209 = fdiv reassoc nsz arcp contract afn double %208, %207
  store double %209, ptr %14, align 8, !tbaa !96
  br label %210

210:                                              ; preds = %205, %200
  call void @llvm.lifetime.end.p0(i64 8, ptr %16) #13
  call void @llvm.lifetime.end.p0(i64 8, ptr %15) #13
  br label %211

211:                                              ; preds = %210, %148
  %212 = load double, ptr %14, align 8, !tbaa !96
  store double %212, ptr %2, align 8
  store i32 1, ptr %7, align 4
  call void @llvm.lifetime.end.p0(i64 8, ptr %14) #13
  call void @llvm.lifetime.end.p0(i64 8, ptr %10) #13
  call void @llvm.lifetime.end.p0(i64 8, ptr %9) #13
  call void @llvm.lifetime.end.p0(i64 8, ptr %8) #13
  br label %213

213:                                              ; preds = %211, %50
  call void @llvm.lifetime.end.p0(i64 8, ptr %6) #13
  call void @llvm.lifetime.end.p0(i64 8, ptr %5) #13
  call void @llvm.lifetime.end.p0(i64 8, ptr %4) #13
  br label %214

214:                                              ; preds = %213, %24
  %215 = load double, ptr %2, align 8
  ret double %215
}