; Function Attrs: nofree norecurse nosync nounwind memory(argmem: read) uwtable
define hidden double @dt_atof(ptr noundef readonly %0) local_unnamed_addr #12 {
sub_0:
  %1 = load i8, ptr %0, align 1
  switch i8 %1, label %sub_095 [
    i8 110, label %sub_1
    i8 78, label %sub_191
    i8 43, label %12
    i8 45, label %14
  ]

sub_1:                                            ; preds = %sub_0
  %2 = getelementptr inbounds nuw i8, ptr %0, i64 1
  %3 = load i8, ptr %2, align 1
  %.not123 = icmp eq i8 %3, 97
  br i1 %.not123, label %.tail, label %sub_095thread-pre-split

.tail:                                            ; preds = %sub_1
  %4 = getelementptr inbounds nuw i8, ptr %0, i64 2
  %5 = load i8, ptr %4, align 1
  %6 = icmp eq i8 %5, 110
  br i1 %6, label %73, label %sub_095thread-pre-split

sub_191:                                          ; preds = %sub_0
  %7 = getelementptr inbounds nuw i8, ptr %0, i64 1
  %8 = load i8, ptr %7, align 1
  %.not125 = icmp eq i8 %8, 65
  br i1 %.not125, label %.tail89, label %sub_095thread-pre-split

.tail89:                                          ; preds = %sub_191
  %9 = getelementptr inbounds nuw i8, ptr %0, i64 2
  %10 = load i8, ptr %9, align 1
  %11 = icmp eq i8 %10, 78
  br i1 %11, label %73, label %sub_095thread-pre-split

12:                                               ; preds = %sub_0
  %13 = getelementptr inbounds nuw i8, ptr %0, i64 1
  br label %sub_095thread-pre-split

14:                                               ; preds = %sub_0
  %15 = getelementptr inbounds nuw i8, ptr %0, i64 1
  br label %sub_095thread-pre-split

sub_095thread-pre-split:                          ; preds = %.tail, %sub_1, %sub_191, %.tail89, %14, %12
  %.074.ph = phi double [ -1.000000e+00, %14 ], [ 1.000000e+00, %12 ], [ 1.000000e+00, %.tail89 ], [ 1.000000e+00, %sub_191 ], [ 1.000000e+00, %sub_1 ], [ 1.000000e+00, %.tail ]
  %.072.ph = phi ptr [ %15, %14 ], [ %13, %12 ], [ %0, %.tail89 ], [ %0, %sub_191 ], [ %0, %sub_1 ], [ %0, %.tail ]
  %.pr = load i8, ptr %.072.ph, align 1
  br label %sub_095

sub_095:                                          ; preds = %sub_0, %sub_095thread-pre-split
  %16 = phi i8 [ %.pr, %sub_095thread-pre-split ], [ %1, %sub_0 ]
  %.074 = phi nsz double [ %.074.ph, %sub_095thread-pre-split ], [ 1.000000e+00, %sub_0 ]
  %.072 = phi ptr [ %.072.ph, %sub_095thread-pre-split ], [ %0, %sub_0 ]
  switch i8 %16, label %.preheader104.preheader [
    i8 105, label %sub_196
    i8 73, label %sub_1101
  ]

sub_196:                                          ; preds = %sub_095
  %17 = getelementptr inbounds nuw i8, ptr %.072, i64 1
  %18 = load i8, ptr %17, align 1
  %.not127 = icmp eq i8 %18, 110
  br i1 %.not127, label %.tail94, label %.preheader104.preheader

.tail94:                                          ; preds = %sub_196
  %19 = getelementptr inbounds nuw i8, ptr %.072, i64 2
  %20 = load i8, ptr %19, align 1
  %21 = icmp eq i8 %20, 102
  br i1 %21, label %27, label %.preheader104.preheader

sub_1101:                                         ; preds = %sub_095
  %22 = getelementptr inbounds nuw i8, ptr %.072, i64 1
  %23 = load i8, ptr %22, align 1
  %.not129 = icmp eq i8 %23, 78
  br i1 %.not129, label %.tail99, label %.preheader104.preheader

.tail99:                                          ; preds = %sub_1101
  %24 = getelementptr inbounds nuw i8, ptr %.072, i64 2
  %25 = load i8, ptr %24, align 1
  %26 = icmp eq i8 %25, 70
  br i1 %26, label %27, label %.preheader104.preheader

.preheader104.preheader:                          ; preds = %sub_095, %.tail94, %sub_196, %sub_1101, %.tail99
  br label %.preheader104

27:                                               ; preds = %.tail99, %.tail94
  %28 = fmul reassoc nsz arcp contract afn double %.074, 0x7FF0000000000000
  br label %73

.preheader104:                                    ; preds = %.preheader104.preheader, %.preheader104
  %.173 = phi ptr [ %31, %.preheader104 ], [ %.072, %.preheader104.preheader ]
  %29 = load i8, ptr %.173, align 1, !tbaa !73
  %30 = add i8 %29, -48
  %or.cond = icmp ult i8 %30, 10
  %31 = getelementptr inbounds nuw i8, ptr %.173, i64 1
  br i1 %or.cond, label %.preheader104, label %.critedge.preheader

.critedge.preheader:                              ; preds = %.preheader104
  %.not105 = icmp eq ptr %.173, %.072
  br i1 %.not105, label %.critedge._crit_edge, label %.critedge

.critedge:                                        ; preds = %.critedge.preheader, %.critedge
  %.070108 = phi double [ %39, %.critedge ], [ 1.000000e+00, %.critedge.preheader ]
  %.071107 = phi ptr [ %32, %.critedge ], [ %.173, %.critedge.preheader ]
  %.077106 = phi double [ %38, %.critedge ], [ 0.000000e+00, %.critedge.preheader ]
  %32 = getelementptr inbounds i8, ptr %.071107, i64 -1
  %33 = load i8, ptr %32, align 1, !tbaa !73
  %34 = sext i8 %33 to i32
  %35 = add nsw i32 %34, -48
  %36 = sitofp i32 %35 to double
  %37 = fmul reassoc nsz arcp contract afn double %.070108, %36
  %38 = fadd reassoc nsz arcp contract afn double %37, %.077106
  %39 = fmul reassoc nsz arcp contract afn double %.070108, 1.000000e+01
  %.not = icmp eq ptr %32, %.072
  br i1 %.not, label %.critedge._crit_edge, label %.critedge

.critedge._crit_edge:                             ; preds = %.critedge, %.critedge.preheader
  %.077.lcssa = phi double [ 0.000000e+00, %.critedge.preheader ], [ %38, %.critedge ]
  %40 = icmp eq i8 %29, 46
  br i1 %40, label %.preheader, label %.critedge2._crit_edge

.preheader:                                       ; preds = %.critedge._crit_edge, %.preheader
  %.3.idx = phi i64 [ %.3.add, %.preheader ], [ 1, %.critedge._crit_edge ]
  %.3.ptr = getelementptr inbounds nuw i8, ptr %.173, i64 %.3.idx
  %41 = load i8, ptr %.3.ptr, align 1, !tbaa !73
  %42 = add i8 %41, -48
  %or.cond87 = icmp ult i8 %42, 10
  %.3.add = add nuw nsw i64 %.3.idx, 1
  br i1 %or.cond87, label %.preheader, label %.critedge2.preheader

.critedge2.preheader:                             ; preds = %.preheader
  %.3.ptr.le = getelementptr inbounds nuw i8, ptr %.173, i64 %.3.idx
  %.not84110 = icmp eq i64 %.3.idx, 1
  br i1 %.not84110, label %.critedge2._crit_edge, label %.critedge2

.critedge2:                                       ; preds = %.critedge2.preheader, %.critedge2
  %.066113 = phi double [ %49, %.critedge2 ], [ 1.000000e+00, %.critedge2.preheader ]
  %.067.idx112 = phi i64 [ %.067.add, %.critedge2 ], [ %.3.idx, %.critedge2.preheader ]
  %.176111 = phi double [ %48, %.critedge2 ], [ 0.000000e+00, %.critedge2.preheader ]
  %.067.add = add nsw i64 %.067.idx112, -1
  %.ptr = getelementptr inbounds i8, ptr %.173, i64 %.067.add
  %43 = load i8, ptr %.ptr, align 1, !tbaa !73
  %44 = sext i8 %43 to i32
  %45 = add nsw i32 %44, -48
  %46 = sitofp i32 %45 to double
  %47 = fmul reassoc nsz arcp contract afn double %.066113, %46
  %48 = fadd reassoc nsz arcp contract afn double %47, %.176111
  %49 = fmul reassoc nsz arcp contract afn double %.066113, 1.000000e+01
  %.not84 = icmp eq i64 %.067.add, 1
  br i1 %.not84, label %.critedge2._crit_edge.loopexit, label %.critedge2

.critedge2._crit_edge.loopexit:                   ; preds = %.critedge2
  %50 = fdiv reassoc nsz arcp contract afn double %48, %49
  br label %.critedge2._crit_edge

.critedge2._crit_edge:                            ; preds = %.critedge2.preheader, %.critedge2._crit_edge.loopexit, %.critedge._crit_edge
  %51 = phi i8 [ %29, %.critedge._crit_edge ], [ %41, %.critedge2._crit_edge.loopexit ], [ %41, %.critedge2.preheader ]
  %.075 = phi nsz double [ 0.000000e+00, %.critedge._crit_edge ], [ %50, %.critedge2._crit_edge.loopexit ], [ 0.000000e+00, %.critedge2.preheader ]
  %.2 = phi ptr [ %.173, %.critedge._crit_edge ], [ %.3.ptr.le, %.critedge2._crit_edge.loopexit ], [ %.3.ptr.le, %.critedge2.preheader ]
  %52 = fadd reassoc nsz arcp contract afn double %.075, %.077.lcssa
  %53 = fmul reassoc nsz arcp contract afn double %52, %.074
  switch i8 %51, label %73 [
    i8 101, label %54
    i8 69, label %54
  ]

54:                                               ; preds = %.critedge2._crit_edge, %.critedge2._crit_edge
  %55 = getelementptr inbounds nuw i8, ptr %.2, i64 1
  %56 = load i8, ptr %55, align 1, !tbaa !73
  switch i8 %56, label %61 [
    i8 43, label %57
    i8 45, label %59
  ]

57:                                               ; preds = %54
  %58 = getelementptr inbounds nuw i8, ptr %.2, i64 2
  br label %61

59:                                               ; preds = %54
  %60 = getelementptr inbounds nuw i8, ptr %.2, i64 2
  br label %61

61:                                               ; preds = %54, %59, %57
  %.4 = phi ptr [ %58, %57 ], [ %60, %59 ], [ %55, %54 ]
  %.064 = phi i1 [ true, %57 ], [ false, %59 ], [ true, %54 ]
  %62 = load i8, ptr %.4, align 1, !tbaa !73
  %63 = add i8 %62, -48
  %or.cond88117 = icmp ult i8 %63, 10
  br i1 %or.cond88117, label %.lr.ph120, label %.critedge4

.lr.ph120:                                        ; preds = %61, %.lr.ph120
  %64 = phi i8 [ %69, %.lr.ph120 ], [ %62, %61 ]
  %.0119 = phi double [ %67, %.lr.ph120 ], [ 0.000000e+00, %61 ]
  %.5118 = phi ptr [ %68, %.lr.ph120 ], [ %.4, %61 ]
  %65 = fmul reassoc nsz arcp contract afn double %.0119, 1.000000e+01
  %narrow = add nsw i8 %64, -48
  %66 = uitofp nneg i8 %narrow to double
  %67 = fadd reassoc nsz arcp contract afn double %65, %66
  %68 = getelementptr inbounds nuw i8, ptr %.5118, i64 1
  %69 = load i8, ptr %68, align 1, !tbaa !73
  %70 = add i8 %69, -48
  %or.cond88 = icmp ult i8 %70, 10
  br i1 %or.cond88, label %.lr.ph120, label %.critedge4

.critedge4:                                       ; preds = %.lr.ph120, %61
  %.0.lcssa = phi double [ 0.000000e+00, %61 ], [ %67, %.lr.ph120 ]
  %71 = fneg reassoc nsz arcp contract afn double %.0.lcssa
  %.sink = select i1 %.064, double %.0.lcssa, double %71
  %72 = tail call reassoc nsz arcp contract afn double @llvm.pow.f64(double 1.000000e+01, double %.sink)
  %.1 = fmul reassoc nsz arcp contract afn double %72, %53
  br label %73

73:                                               ; preds = %27, %.critedge2._crit_edge, %.critedge4, %.tail, %.tail89
  %.068 = phi nsz double [ 0x7FF8000000000000, %.tail89 ], [ 0x7FF8000000000000, %.tail ], [ %28, %27 ], [ %.1, %.critedge4 ], [ %53, %.critedge2._crit_edge ]
  ret double %.068
}